; Function Attrs: mustprogress nounwind memory(readwrite, inaccessiblemem: write) uwtable
define void @_ZN8facebook5velox3row10CompactRow19serializeFixedWidthEiPc(ptr nocapture noundef nonnull readonly align 8 dereferenceable(224) %this, i32 noundef %index, ptr nocapture noundef writeonly %buffer) local_unnamed_addr #4 align 2 personality ptr @__gxx_personality_v0 {
entry:
  %0 = load i8, ptr %this, align 8
  %data_.i18 = getelementptr inbounds i8, ptr %this, i64 24
  %1 = load ptr, ptr %data_.i18, align 8
  %isIdentityMapping_.i = getelementptr inbounds i8, ptr %this, i64 66
  %2 = load i8, ptr %isIdentityMapping_.i, align 2
  %3 = and i8 %2, 1
  %tobool.not.i = icmp eq i8 %3, 0
  switch i8 %0, label %sw.default [
    i8 0, label %sw.bb
    i8 9, label %sw.bb2
  ]

sw.bb:                                            ; preds = %entry
  br i1 %tobool.not.i, label %if.end.i.i, label %_ZNK8facebook5velox13DecodedVector7valueAtIbEET_i.exit

if.end.i.i:                                       ; preds = %sw.bb
  %isConstantMapping_.i.i = getelementptr inbounds i8, ptr %this, i64 67
  %4 = load i8, ptr %isConstantMapping_.i.i, align 1
  %5 = and i8 %4, 1
  %tobool2.not.i.i = icmp eq i8 %5, 0
  br i1 %tobool2.not.i.i, label %if.end4.i.i, label %if.then3.i.i

if.then3.i.i:                                     ; preds = %if.end.i.i
  %constantIndex_.i.i = getelementptr inbounds i8, ptr %this, i64 72
  %6 = load i32, ptr %constantIndex_.i.i, align 8
  br label %_ZNK8facebook5velox13DecodedVector7valueAtIbEET_i.exit

if.end4.i.i:                                      ; preds = %if.end.i.i
  %indices_.i.i = getelementptr inbounds i8, ptr %this, i64 16
  %7 = load ptr, ptr %indices_.i.i, align 8
  %idxprom.i.i = sext i32 %index to i64
  %arrayidx.i.i = getelementptr inbounds i32, ptr %7, i64 %idxprom.i.i
  %8 = load i32, ptr %arrayidx.i.i, align 4
  br label %_ZNK8facebook5velox13DecodedVector7valueAtIbEET_i.exit

_ZNK8facebook5velox13DecodedVector7valueAtIbEET_i.exit: ; preds = %sw.bb, %if.then3.i.i, %if.end4.i.i
  %retval.0.i.i = phi i32 [ %6, %if.then3.i.i ], [ %8, %if.end4.i.i ], [ %index, %sw.bb ]
  %conv.i.i = sext i32 %retval.0.i.i to i64
  %div2.i.i = lshr i64 %conv.i.i, 6
  %arrayidx.i1.i = getelementptr inbounds i64, ptr %1, i64 %div2.i.i
  %9 = load i64, ptr %arrayidx.i1.i, align 8
  %and.i.i = and i64 %conv.i.i, 63
  %shl.i.i = shl nuw i64 1, %and.i.i
  %and2.i.i = and i64 %shl.i.i, %9
  %tobool.i.i = icmp ne i64 %and2.i.i, 0
  %frombool = zext i1 %tobool.i.i to i8
  store i8 %frombool, ptr %buffer, align 1
  br label %sw.epilog

sw.bb2:                                           ; preds = %entry
  br i1 %tobool.not.i, label %if.end.i.i9, label %_ZNK8facebook5velox13DecodedVector7valueAtINS0_9TimestampEEET_i.exit

if.end.i.i9:                                      ; preds = %sw.bb2
  %isConstantMapping_.i.i10 = getelementptr inbounds i8, ptr %this, i64 67
  %10 = load i8, ptr %isConstantMapping_.i.i10, align 1
  %11 = and i8 %10, 1
  %tobool2.not.i.i11 = icmp eq i8 %11, 0
  br i1 %tobool2.not.i.i11, label %if.end4.i.i14, label %if.then3.i.i12

if.then3.i.i12:                                   ; preds = %if.end.i.i9
  %constantIndex_.i.i13 = getelementptr inbounds i8, ptr %this, i64 72
  %12 = load i32, ptr %constantIndex_.i.i13, align 8
  br label %_ZNK8facebook5velox13DecodedVector7valueAtINS0_9TimestampEEET_i.exit

if.end4.i.i14:                                    ; preds = %if.end.i.i9
  %indices_.i.i15 = getelementptr inbounds i8, ptr %this, i64 16
  %13 = load ptr, ptr %indices_.i.i15, align 8
  %idxprom.i.i16 = sext i32 %index to i64
  %arrayidx.i.i17 = getelementptr inbounds i32, ptr %13, i64 %idxprom.i.i16
  %14 = load i32, ptr %arrayidx.i.i17, align 4
  br label %_ZNK8facebook5velox13DecodedVector7valueAtINS0_9TimestampEEET_i.exit

_ZNK8facebook5velox13DecodedVector7valueAtINS0_9TimestampEEET_i.exit: ; preds = %sw.bb2, %if.then3.i.i12, %if.end4.i.i14
  %retval.0.i.i8 = phi i32 [ %12, %if.then3.i.i12 ], [ %14, %if.end4.i.i14 ], [ %index, %sw.bb2 ]
  %idxprom.i = sext i32 %retval.0.i.i8 to i64
  %arrayidx.i = getelementptr inbounds %"struct.facebook::velox::Timestamp", ptr %1, i64 %idxprom.i
  %retval.sroa.0.0.copyload.i = load i64, ptr %arrayidx.i, align 8
  %15 = tail call { i64, i1 } @llvm.smul.with.overflow.i64(i64 %retval.sroa.0.0.copyload.i, i64 1000000)
  %16 = extractvalue { i64, i1 } %15, 1
  br i1 %16, label %if.then.i.i, label %_ZN8facebook5velox15checkedMultiplyIlEET_RKS2_S4_PKc.exit.i

if.then.i.i:                                      ; preds = %_ZNK8facebook5velox13DecodedVector7valueAtINS0_9TimestampEEET_i.exit
  tail call void @llvm.trap()
  unreachable

_ZN8facebook5velox15checkedMultiplyIlEET_RKS2_S4_PKc.exit.i: ; preds = %_ZNK8facebook5velox13DecodedVector7valueAtINS0_9TimestampEEET_i.exit
  %retval.sroa.2.0.arrayidx.sroa_idx.i = getelementptr inbounds i8, ptr %arrayidx.i, i64 8
  %retval.sroa.2.0.copyload.i = load i64, ptr %retval.sroa.2.0.arrayidx.sroa_idx.i, align 8
  %17 = extractvalue { i64, i1 } %15, 0
  %div.i = udiv i64 %retval.sroa.2.0.copyload.i, 1000
  %18 = tail call { i64, i1 } @llvm.sadd.with.overflow.i64(i64 %17, i64 %div.i)
  %19 = extractvalue { i64, i1 } %18, 1
  br i1 %19, label %if.then.i1.i, label %_ZNK8facebook5velox9Timestamp8toMicrosEv.exit

if.then.i1.i:                                     ; preds = %_ZN8facebook5velox15checkedMultiplyIlEET_RKS2_S4_PKc.exit.i
  tail call void @llvm.trap()
  unreachable

_ZNK8facebook5velox9Timestamp8toMicrosEv.exit:    ; preds = %_ZN8facebook5velox15checkedMultiplyIlEET_RKS2_S4_PKc.exit.i
  %20 = extractvalue { i64, i1 } %18, 0
  store i64 %20, ptr %buffer, align 1
  br label %sw.epilog

sw.default:                                       ; preds = %entry
  br i1 %tobool.not.i, label %if.end.i, label %_ZNK8facebook5velox13DecodedVector5indexEi.exit

if.end.i:                                         ; preds = %sw.default
  %isConstantMapping_.i = getelementptr inbounds i8, ptr %this, i64 67
  %21 = load i8, ptr %isConstantMapping_.i, align 1
  %22 = and i8 %21, 1
  %tobool2.not.i = icmp eq i8 %22, 0
  br i1 %tobool2.not.i, label %if.end4.i, label %if.then3.i

if.then3.i:                                       ; preds = %if.end.i
  %constantIndex_.i = getelementptr inbounds i8, ptr %this, i64 72
  %23 = load i32, ptr %constantIndex_.i, align 8
  br label %_ZNK8facebook5velox13DecodedVector5indexEi.exit

if.end4.i:                                        ; preds = %if.end.i
  %indices_.i = getelementptr inbounds i8, ptr %this, i64 16
  %24 = load ptr, ptr %indices_.i, align 8
  %idxprom.i19 = sext i32 %index to i64
  %arrayidx.i20 = getelementptr inbounds i32, ptr %24, i64 %idxprom.i19
  %25 = load i32, ptr %arrayidx.i20, align 4
  br label %_ZNK8facebook5velox13DecodedVector5indexEi.exit

_ZNK8facebook5velox13DecodedVector5indexEi.exit:  ; preds = %sw.default, %if.then3.i, %if.end4.i
  %retval.0.i = phi i32 [ %23, %if.then3.i ], [ %25, %if.end4.i ], [ %index, %sw.default ]
  %conv = sext i32 %retval.0.i to i64
  %valueBytes_ = getelementptr inbounds i8, ptr %this, i64 216
  %26 = load i64, ptr %valueBytes_, align 8
  %mul = mul i64 %26, %conv
  %add.ptr = getelementptr inbounds i8, ptr %1, i64 %mul
  tail call void @llvm.memcpy.p0.p0.i64(ptr align 1 %buffer, ptr align 1 %add.ptr, i64 %26, i1 false)
  br label %sw.epilog

sw.epilog:                                        ; preds = %_ZNK8facebook5velox13DecodedVector5indexEi.exit, %_ZNK8facebook5velox9Timestamp8toMicrosEv.exit, %_ZNK8facebook5velox13DecodedVector7valueAtIbEET_i.exit
  ret void
}